; Function Attrs: nounwind uwtable
define internal noundef i32 @lj_cf_jit_off(ptr noundef %0) #0 {
  %2 = getelementptr inbounds nuw i8, ptr %0, i64 32
  %3 = load ptr, ptr %2, align 8, !tbaa !33
  %4 = getelementptr inbounds nuw i8, ptr %0, i64 40
  %5 = load ptr, ptr %4, align 8, !tbaa !32
  %6 = icmp eq ptr %3, %5
  br i1 %6, label %20, label %7

7:                                                ; preds = %1
  %8 = load i64, ptr %3, align 8, !tbaa !34
  %9 = icmp eq i64 %8, -1
  br i1 %9, label %20, label %10

10:                                               ; preds = %7
  %11 = ashr i64 %8, 47
  switch i64 %11, label %25 [
    i64 -9, label %12
    i64 -8, label %12
    i64 -3, label %.fold.split.i
  ]

.fold.split.i:                                    ; preds = %10
  br label %12

12:                                               ; preds = %.fold.split.i, %10, %10
  %.1.i = phi i32 [ 1, %10 ], [ 1, %10 ], [ 0, %.fold.split.i ]
  %13 = getelementptr inbounds nuw i8, ptr %3, i64 8
  %14 = icmp ult ptr %13, %5
  br i1 %14, label %15, label %20

15:                                               ; preds = %12
  %16 = load i64, ptr %13, align 8, !tbaa !34
  %17 = ashr i64 %16, 47
  %.off.i = add nsw i64 %17, 3
  %switch.i = icmp ult i64 %.off.i, 2
  br i1 %switch.i, label %18, label %20

18:                                               ; preds = %15
  %.mask.i = and i64 %16, -140737488355328
  %.not.i = icmp eq i64 %.mask.i, -281474976710656
  %19 = select i1 %.not.i, i32 4, i32 3
  br label %20

20:                                               ; preds = %12, %15, %18, %7, %1
  %.019.i = phi i32 [ %19, %18 ], [ 0, %7 ], [ 0, %1 ], [ 2, %15 ], [ 2, %12 ]
  %.0.i = phi i32 [ %.1.i, %18 ], [ 0, %7 ], [ 0, %1 ], [ %.1.i, %15 ], [ %.1.i, %12 ]
  %21 = tail call i32 @luaJIT_setmode(ptr noundef nonnull %0, i32 noundef %.0.i, i32 noundef %.019.i) #8
  %.not25.i = icmp eq i32 %21, 1
  br i1 %.not25.i, label %setjitmode.exit, label %22

22:                                               ; preds = %20
  %23 = icmp eq i32 %.019.i, 0
  br i1 %23, label %24, label %25

24:                                               ; preds = %22
  tail call void @lj_err_caller(ptr noundef nonnull %0, i32 noundef 2074) #9
  unreachable

25:                                               ; preds = %22, %10
  tail call void @lj_err_argt(ptr noundef nonnull %0, i32 noundef 1, i32 noundef 6) #9
  unreachable

setjitmode.exit:                                  ; preds = %20
  ret i32 0
}